target datalayout = "e-m:e-p270:32:32-p271:32:32-p272:64:64-i64:64-i128:128-f80:128-n8:16:32:64-S128"
target triple = "x86_64-pc-linux-gnu"

@nul_term_line = internal global i32 0, align 4
@checkout_stage = internal global i32 0, align 4
@topath = internal global [4 x [26 x i8]] zeroinitializer, align 16
@stdout = external global ptr, align 8

; Function Attrs: inlinehint nounwind uwtable
define available_externally i32 @putchar(i32 noundef %0) #4 {
  %2 = alloca i32, align 4
  store i32 %0, ptr %2, align 4, !tbaa !4
  %3 = load i32, ptr %2, align 4, !tbaa !4
  %4 = load ptr, ptr @stdout, align 8, !tbaa !58
  %5 = call i32 @putc(i32 noundef %3, ptr noundef %4)
  ret i32 %5
}

; Function Attrs: nounwind uwtable
define internal void @write_tempfile_record(ptr noundef %0, ptr noundef %1) #0 {
  %3 = alloca ptr, align 8
  %4 = alloca ptr, align 8
  %5 = alloca i32, align 4
  %6 = alloca i32, align 4
  store ptr %0, ptr %3, align 8, !tbaa !11
  store ptr %1, ptr %4, align 8, !tbaa !11
  call void @llvm.lifetime.start.p0(i64 4, ptr %5) #9
  call void @llvm.lifetime.start.p0(i64 4, ptr %6) #9
  store i32 0, ptr %6, align 4, !tbaa !4
  %7 = load i32, ptr @checkout_stage, align 4, !tbaa !4
  %8 = icmp eq i32 4, %7
  br i1 %8, label %9, label %59

9:                                                ; preds = %2
  store i32 1, ptr %5, align 4, !tbaa !4
  br label %10

10:                                               ; preds = %22, %9
  %11 = load i32, ptr %5, align 4, !tbaa !4
  %12 = icmp slt i32 %11, 4
  br i1 %12, label %13, label %25

13:                                               ; preds = %10
  %14 = load i32, ptr %5, align 4, !tbaa !4
  %15 = sext i32 %14 to i64
  %16 = getelementptr inbounds [4 x [26 x i8]], ptr @topath, i64 0, i64 %15
  %17 = getelementptr inbounds [26 x i8], ptr %16, i64 0, i64 0
  %18 = load i8, ptr %17, align 2, !tbaa !62
  %19 = icmp ne i8 %18, 0
  br i1 %19, label %20, label %21

20:                                               ; preds = %13
  store i32 1, ptr %6, align 4, !tbaa !4
  br label %25

21:                                               ; preds = %13
  br label %22

22:                                               ; preds = %21
  %23 = load i32, ptr %5, align 4, !tbaa !4
  %24 = add nsw i32 %23, 1
  store i32 %24, ptr %5, align 4, !tbaa !4
  br label %10, !llvm.loop !96

25:                                               ; preds = %20, %10
  %26 = load i32, ptr %6, align 4, !tbaa !4
  %27 = icmp ne i32 %26, 0
  br i1 %27, label %28, label %58

28:                                               ; preds = %25
  store i32 1, ptr %5, align 4, !tbaa !4
  br label %29

29:                                               ; preds = %54, %28
  %30 = load i32, ptr %5, align 4, !tbaa !4
  %31 = icmp slt i32 %30, 4
  br i1 %31, label %32, label %57

32:                                               ; preds = %29
  %33 = load i32, ptr %5, align 4, !tbaa !4
  %34 = icmp sgt i32 %33, 1
  br i1 %34, label %35, label %37

35:                                               ; preds = %32
  %36 = call i32 @putchar(i32 noundef 32)
  br label %37

37:                                               ; preds = %35, %32
  %38 = load i32, ptr %5, align 4, !tbaa !4
  %39 = sext i32 %38 to i64
  %40 = getelementptr inbounds [4 x [26 x i8]], ptr @topath, i64 0, i64 %39
  %41 = getelementptr inbounds [26 x i8], ptr %40, i64 0, i64 0
  %42 = load i8, ptr %41, align 2, !tbaa !62
  %43 = icmp ne i8 %42, 0
  br i1 %43, label %44, label %51

44:                                               ; preds = %37
  %45 = load i32, ptr %5, align 4, !tbaa !4
  %46 = sext i32 %45 to i64
  %47 = getelementptr inbounds [4 x [26 x i8]], ptr @topath, i64 0, i64 %46
  %48 = getelementptr inbounds [26 x i8], ptr %47, i64 0, i64 0
  %49 = load ptr, ptr @stdout, align 8, !tbaa !58
  %50 = call i32 @fputs(ptr noundef %48, ptr noundef %49)
  br label %53

51:                                               ; preds = %37
  %52 = call i32 @putchar(i32 noundef 46)
  br label %53

53:                                               ; preds = %51, %44
  br label %54

54:                                               ; preds = %53
  %55 = load i32, ptr %5, align 4, !tbaa !4
  %56 = add nsw i32 %55, 1
  store i32 %56, ptr %5, align 4, !tbaa !4
  br label %29, !llvm.loop !97

57:                                               ; preds = %29
  br label %58

58:                                               ; preds = %57, %25
  br label %74

59:                                               ; preds = %2
  %60 = load i32, ptr @checkout_stage, align 4, !tbaa !4
  %61 = sext i32 %60 to i64
  %62 = getelementptr inbounds [4 x [26 x i8]], ptr @topath, i64 0, i64 %61
  %63 = getelementptr inbounds [26 x i8], ptr %62, i64 0, i64 0
  %64 = load i8, ptr %63, align 2, !tbaa !62
  %65 = icmp ne i8 %64, 0
  br i1 %65, label %66, label %73

66:                                               ; preds = %59
  store i32 1, ptr %6, align 4, !tbaa !4
  %67 = load i32, ptr @checkout_stage, align 4, !tbaa !4
  %68 = sext i32 %67 to i64
  %69 = getelementptr inbounds [4 x [26 x i8]], ptr @topath, i64 0, i64 %68
  %70 = getelementptr inbounds [26 x i8], ptr %69, i64 0, i64 0
  %71 = load ptr, ptr @stdout, align 8, !tbaa !58
  %72 = call i32 @fputs(ptr noundef %70, ptr noundef %71)
  br label %73

73:                                               ; preds = %66, %59
  br label %74

74:                                               ; preds = %73, %58
  %75 = load i32, ptr %6, align 4, !tbaa !4
  %76 = icmp ne i32 %75, 0
  br i1 %76, label %77, label %85

77:                                               ; preds = %74
  %78 = call i32 @putchar(i32 noundef 9)
  %79 = load ptr, ptr %3, align 8, !tbaa !11
  %80 = load ptr, ptr %4, align 8, !tbaa !11
  %81 = load ptr, ptr @stdout, align 8, !tbaa !58
  %82 = load i32, ptr @nul_term_line, align 4, !tbaa !4
  %83 = icmp ne i32 %82, 0
  %84 = select i1 %83, i32 0, i32 10
  call void @write_name_quoted_relative(ptr noundef %79, ptr noundef %80, ptr noundef %81, i32 noundef %84)
  br label %85

85:                                               ; preds = %77, %74
  store i32 0, ptr %5, align 4, !tbaa !4
  br label %86

86:                                               ; preds = %94, %85
  %87 = load i32, ptr %5, align 4, !tbaa !4
  %88 = icmp slt i32 %87, 4
  br i1 %88, label %89, label %97

89:                                               ; preds = %86
  %90 = load i32, ptr %5, align 4, !tbaa !4
  %91 = sext i32 %90 to i64
  %92 = getelementptr inbounds [4 x [26 x i8]], ptr @topath, i64 0, i64 %91
  %93 = getelementptr inbounds [26 x i8], ptr %92, i64 0, i64 0
  store i8 0, ptr %93, align 2, !tbaa !62
  br label %94

94:                                               ; preds = %89
  %95 = load i32, ptr %5, align 4, !tbaa !4
  %96 = add nsw i32 %95, 1
  store i32 %96, ptr %5, align 4, !tbaa !4
  br label %86, !llvm.loop !98

97:                                               ; preds = %86
  call void @llvm.lifetime.end.p0(i64 4, ptr %6) #9
  call void @llvm.lifetime.end.p0(i64 4, ptr %5) #9
  ret void
}