; Function Attrs: nounwind uwtable
define internal fastcc void @write_tempfile_record(ptr noundef %0, ptr noundef %1) unnamed_addr #0 {
  %3 = load i32, ptr @checkout_stage, align 4, !tbaa !4
  %4 = icmp eq i32 %3, 4
  br i1 %4, label %.preheader23, label %21

5:                                                ; preds = %.preheader23
  %indvars.iv.next = add nuw nsw i64 %indvars.iv, 1
  %exitcond = icmp eq i64 %indvars.iv.next, 4
  br i1 %exitcond, label %.critedge.preheader, label %.preheader23, !llvm.loop !79

.preheader23:                                     ; preds = %2, %5
  %indvars.iv = phi i64 [ %indvars.iv.next, %5 ], [ 1, %2 ]
  %6 = getelementptr inbounds nuw [4 x [26 x i8]], ptr @topath, i64 0, i64 %indvars.iv
  %7 = load i8, ptr %6, align 2, !tbaa !57
  %.not17 = icmp eq i8 %7, 0
  br i1 %.not17, label %5, label %.preheader

.preheader:                                       ; preds = %.preheader23, %20
  %indvars.iv28 = phi i64 [ %indvars.iv.next29, %20 ], [ 1, %.preheader23 ]
  %8 = icmp samesign ugt i64 %indvars.iv28, 1
  br i1 %8, label %9, label %12

9:                                                ; preds = %.preheader
  %10 = load ptr, ptr @stdout, align 8, !tbaa !52
  %11 = tail call i32 @putc(i32 noundef 32, ptr noundef %10)
  br label %12

12:                                               ; preds = %9, %.preheader
  %13 = getelementptr inbounds nuw [4 x [26 x i8]], ptr @topath, i64 0, i64 %indvars.iv28
  %14 = load i8, ptr %13, align 2, !tbaa !57
  %.not21 = icmp eq i8 %14, 0
  %15 = load ptr, ptr @stdout, align 8, !tbaa !52
  br i1 %.not21, label %18, label %16

16:                                               ; preds = %12
  %17 = tail call i32 @fputs(ptr noundef nonnull %13, ptr noundef %15)
  br label %20

18:                                               ; preds = %12
  %19 = tail call i32 @putc(i32 noundef 46, ptr noundef %15)
  br label %20

20:                                               ; preds = %16, %18
  %indvars.iv.next29 = add nuw nsw i64 %indvars.iv28, 1
  %exitcond31.not = icmp eq i64 %indvars.iv.next29, 4
  br i1 %exitcond31.not, label %.critedge22, label %.preheader, !llvm.loop !80

21:                                               ; preds = %2
  %22 = sext i32 %3 to i64
  %23 = getelementptr inbounds [4 x [26 x i8]], ptr @topath, i64 0, i64 %22
  %24 = load i8, ptr %23, align 2, !tbaa !57
  %.not = icmp eq i8 %24, 0
  br i1 %.not, label %.critedge.preheader, label %25

25:                                               ; preds = %21
  %26 = load ptr, ptr @stdout, align 8, !tbaa !52
  %27 = tail call i32 @fputs(ptr noundef nonnull %23, ptr noundef %26)
  br label %.critedge22

.critedge22:                                      ; preds = %20, %25
  %28 = load ptr, ptr @stdout, align 8, !tbaa !52
  %29 = tail call i32 @putc(i32 noundef 9, ptr noundef %28)
  %30 = load ptr, ptr @stdout, align 8, !tbaa !52
  %31 = load i32, ptr @nul_term_line, align 4, !tbaa !4
  %.not20 = icmp eq i32 %31, 0
  %32 = select i1 %.not20, i32 10, i32 0
  tail call void @write_name_quoted_relative(ptr noundef %0, ptr noundef %1, ptr noundef %30, i32 noundef %32) #13
  br label %.critedge.preheader

.critedge.preheader:                              ; preds = %5, %21, %.critedge22
  br label %.critedge

.critedge:                                        ; preds = %.critedge.preheader, %.critedge
  %indvars.iv32 = phi i64 [ %indvars.iv.next33, %.critedge ], [ 0, %.critedge.preheader ]
  %33 = getelementptr inbounds nuw [4 x [26 x i8]], ptr @topath, i64 0, i64 %indvars.iv32
  store i8 0, ptr %33, align 2, !tbaa !57
  %indvars.iv.next33 = add nuw nsw i64 %indvars.iv32, 1
  %exitcond35.not = icmp eq i64 %indvars.iv.next33, 4
  br i1 %exitcond35.not, label %34, label %.critedge, !llvm.loop !81

34:                                               ; preds = %.critedge
  ret void
}